target datalayout = "e-m:e-p270:32:32-p271:32:32-p272:64:64-i64:64-i128:128-f80:128-n8:16:32:64-S128"
target triple = "x86_64-pc-linux-gnu"

%struct.JNIEnv_ = type { ptr }
%struct.JNINativeInterface_ = type { ptr, ptr, ptr, ptr, ptr, ptr, ptr, ptr, ptr, ptr, ptr, ptr, ptr, ptr, ptr, ptr, ptr, ptr, ptr, ptr, ptr, ptr, ptr, ptr, ptr, ptr, ptr, ptr, ptr, ptr, ptr, ptr, ptr, ptr, ptr, ptr, ptr, ptr, ptr, ptr, ptr, ptr, ptr, ptr, ptr, ptr, ptr, ptr, ptr, ptr, ptr, ptr, ptr, ptr, ptr, ptr, ptr, ptr, ptr, ptr, ptr, ptr, ptr, ptr, ptr, ptr, ptr, ptr, ptr, ptr, ptr, ptr, ptr, ptr, ptr, ptr, ptr, ptr, ptr, ptr, ptr, ptr, ptr, ptr, ptr, ptr, ptr, ptr, ptr, ptr, ptr, ptr, ptr, ptr, ptr, ptr, ptr, ptr, ptr, ptr, ptr, ptr, ptr, ptr, ptr, ptr, ptr, ptr, ptr, ptr, ptr, ptr, ptr, ptr, ptr, ptr, ptr, ptr, ptr, ptr, ptr, ptr, ptr, ptr, ptr, ptr, ptr, ptr, ptr, ptr, ptr, ptr, ptr, ptr, ptr, ptr, ptr, ptr, ptr, ptr, ptr, ptr, ptr, ptr, ptr, ptr, ptr, ptr, ptr, ptr, ptr, ptr, ptr, ptr, ptr, ptr, ptr, ptr, ptr, ptr, ptr, ptr, ptr, ptr, ptr, ptr, ptr, ptr, ptr, ptr, ptr, ptr, ptr, ptr, ptr, ptr, ptr, ptr, ptr, ptr, ptr, ptr, ptr, ptr, ptr, ptr, ptr, ptr, ptr, ptr, ptr, ptr, ptr, ptr, ptr, ptr, ptr, ptr, ptr, ptr, ptr, ptr, ptr, ptr, ptr, ptr, ptr, ptr, ptr, ptr, ptr, ptr, ptr, ptr, ptr, ptr, ptr, ptr, ptr, ptr, ptr, ptr, ptr, ptr, ptr, ptr, ptr, ptr, ptr, ptr, ptr, ptr, ptr, ptr, ptr }
%class.DwarfParser = type <{ ptr, ptr, i8, [3 x i8], i32, i32, i32, i32, [4 x i8], i64, i32, i32, i32, i8, [3 x i8] }>
%struct.lib_info = type { [4352 x i8], i64, i64, i64, i64, %struct.eh_frame_info, ptr, i32, ptr }
%struct.eh_frame_info = type { i64, i64, ptr, i32 }

@.str.21 = private unnamed_addr constant [43 x i8] c"sun/jvm/hotspot/debugger/DebuggerException\00", align 1
@.str.22 = private unnamed_addr constant [16 x i8] c"DWARF not found\00", align 1

; Function Attrs: mustprogress nounwind uwtable
define linkonce_odr hidden void @_ZN11DwarfParserD2Ev(ptr noundef nonnull align 8 dereferenceable(61) %0) unnamed_addr #2 comdat align 2 {
  %2 = alloca ptr, align 8
  store ptr %0, ptr %2, align 8
  ret void
}

; Function Attrs: mustprogress uwtable
define linkonce_odr hidden noundef i32 @_ZN7JNIEnv_8ThrowNewEP7_jclassPKc(ptr noundef nonnull align 8 dereferenceable(8) %0, ptr noundef %1, ptr noundef %2) #0 comdat align 2 {
  %4 = alloca ptr, align 8
  %5 = alloca ptr, align 8
  %6 = alloca ptr, align 8
  store ptr %0, ptr %4, align 8
  store ptr %1, ptr %5, align 8
  store ptr %2, ptr %6, align 8
  %7 = load ptr, ptr %4, align 8
  %8 = getelementptr inbounds %struct.JNIEnv_, ptr %7, i32 0, i32 0
  %9 = load ptr, ptr %8, align 8
  %10 = getelementptr inbounds %struct.JNINativeInterface_, ptr %9, i32 0, i32 14
  %11 = load ptr, ptr %10, align 8
  %12 = load ptr, ptr %5, align 8
  %13 = load ptr, ptr %6, align 8
  %14 = call noundef i32 %11(ptr noundef %7, ptr noundef %12, ptr noundef %13)
  ret i32 %14
}

; Function Attrs: mustprogress uwtable
define linkonce_odr hidden noundef ptr @_ZN7JNIEnv_17ExceptionOccurredEv(ptr noundef nonnull align 8 dereferenceable(8) %0) #0 comdat align 2 {
  %2 = alloca ptr, align 8
  store ptr %0, ptr %2, align 8
  %3 = load ptr, ptr %2, align 8
  %4 = getelementptr inbounds %struct.JNIEnv_, ptr %3, i32 0, i32 0
  %5 = load ptr, ptr %4, align 8
  %6 = getelementptr inbounds %struct.JNINativeInterface_, ptr %5, i32 0, i32 15
  %7 = load ptr, ptr %6, align 8
  %8 = call noundef ptr %7(ptr noundef %3)
  ret ptr %8
}

; Function Attrs: mustprogress uwtable
define linkonce_odr hidden noundef ptr @_ZN7JNIEnv_9FindClassEPKc(ptr noundef nonnull align 8 dereferenceable(8) %0, ptr noundef %1) #0 comdat align 2 {
  %3 = alloca ptr, align 8
  %4 = alloca ptr, align 8
  store ptr %0, ptr %3, align 8
  store ptr %1, ptr %4, align 8
  %5 = load ptr, ptr %3, align 8
  %6 = getelementptr inbounds %struct.JNIEnv_, ptr %5, i32 0, i32 0
  %7 = load ptr, ptr %6, align 8
  %8 = getelementptr inbounds %struct.JNINativeInterface_, ptr %7, i32 0, i32 6
  %9 = load ptr, ptr %8, align 8
  %10 = load ptr, ptr %4, align 8
  %11 = call noundef ptr %9(ptr noundef %5, ptr noundef %10)
  ret ptr %11
}

; Function Attrs: mustprogress nounwind uwtable
define linkonce_odr hidden noundef zeroext i1 @_ZN11DwarfParser12is_parseableEv(ptr noundef nonnull align 8 dereferenceable(61) %0) #2 comdat align 2 {
  %2 = alloca ptr, align 8
  store ptr %0, ptr %2, align 8
  %3 = load ptr, ptr %2, align 8
  %4 = getelementptr inbounds %class.DwarfParser, ptr %3, i32 0, i32 0
  %5 = load ptr, ptr %4, align 8
  %6 = getelementptr inbounds %struct.lib_info, ptr %5, i32 0, i32 5
  %7 = getelementptr inbounds %struct.eh_frame_info, ptr %6, i32 0, i32 2
  %8 = load ptr, ptr %7, align 8
  %9 = icmp ne ptr %8, null
  ret i1 %9
}

; Function Attrs: mustprogress nounwind uwtable
define linkonce_odr hidden void @_ZN11DwarfParserC2EP8lib_info(ptr noundef nonnull align 8 dereferenceable(61) %0, ptr noundef %1) unnamed_addr #2 comdat align 2 {
  %3 = alloca ptr, align 8
  %4 = alloca ptr, align 8
  store ptr %0, ptr %3, align 8
  store ptr %1, ptr %4, align 8
  %5 = load ptr, ptr %3, align 8
  %6 = getelementptr inbounds %class.DwarfParser, ptr %5, i32 0, i32 0
  %7 = load ptr, ptr %4, align 8
  store ptr %7, ptr %6, align 8
  %8 = getelementptr inbounds %class.DwarfParser, ptr %5, i32 0, i32 1
  store ptr null, ptr %8, align 8
  %9 = getelementptr inbounds %class.DwarfParser, ptr %5, i32 0, i32 2
  store i8 0, ptr %9, align 8
  %10 = getelementptr inbounds %class.DwarfParser, ptr %5, i32 0, i32 4
  store i32 7, ptr %10, align 4
  %11 = getelementptr inbounds %class.DwarfParser, ptr %5, i32 0, i32 5
  store i32 16, ptr %11, align 8
  %12 = getelementptr inbounds %class.DwarfParser, ptr %5, i32 0, i32 6
  store i32 0, ptr %12, align 4
  %13 = getelementptr inbounds %class.DwarfParser, ptr %5, i32 0, i32 7
  store i32 0, ptr %13, align 8
  %14 = getelementptr inbounds %class.DwarfParser, ptr %5, i32 0, i32 9
  store i64 0, ptr %14, align 8
  %15 = getelementptr inbounds %class.DwarfParser, ptr %5, i32 0, i32 10
  store i32 0, ptr %15, align 8
  %16 = getelementptr inbounds %class.DwarfParser, ptr %5, i32 0, i32 11
  store i32 0, ptr %16, align 4
  %17 = getelementptr inbounds %class.DwarfParser, ptr %5, i32 0, i32 12
  store i32 0, ptr %17, align 8
  %18 = getelementptr inbounds %class.DwarfParser, ptr %5, i32 0, i32 13
  store i8 0, ptr %18, align 4
  ret void
}

; Function Attrs: mustprogress uwtable
define i64 @Java_sun_jvm_hotspot_debugger_linux_amd64_DwarfParser_createDwarfContext(ptr noundef %0, ptr noundef %1, i64 noundef %2) #0 personality ptr @__gxx_personality_v0 {
  %4 = alloca i64, align 8
  %5 = alloca ptr, align 8
  %6 = alloca ptr, align 8
  %7 = alloca i64, align 8
  %8 = alloca ptr, align 8
  %9 = alloca ptr, align 8
  %10 = alloca i32, align 4
  %11 = alloca ptr, align 8
  store ptr %0, ptr %5, align 8
  store ptr %1, ptr %6, align 8
  store i64 %2, ptr %7, align 8
  %12 = call noalias noundef nonnull ptr @_Znwm(i64 noundef 64) #5
  %13 = load i64, ptr %7, align 8
  %14 = inttoptr i64 %13 to ptr
  invoke void @_ZN11DwarfParserC2EP8lib_info(ptr noundef nonnull align 8 dereferenceable(61) %12, ptr noundef %14)
          to label %15 unwind label %28

15:                                               ; preds = %3
  store ptr %12, ptr %8, align 8
  %16 = load ptr, ptr %8, align 8
  %17 = call noundef zeroext i1 @_ZN11DwarfParser12is_parseableEv(ptr noundef nonnull align 8 dereferenceable(61) %16)
  br i1 %17, label %37, label %18

18:                                               ; preds = %15
  %19 = load ptr, ptr %5, align 8
  %20 = call noundef ptr @_ZN7JNIEnv_9FindClassEPKc(ptr noundef nonnull align 8 dereferenceable(8) %19, ptr noundef @.str.21)
  store ptr %20, ptr %11, align 8
  %21 = load ptr, ptr %5, align 8
  %22 = call noundef ptr @_ZN7JNIEnv_17ExceptionOccurredEv(ptr noundef nonnull align 8 dereferenceable(8) %21)
  %23 = icmp ne ptr %22, null
  br i1 %23, label %32, label %24

24:                                               ; preds = %18
  %25 = load ptr, ptr %5, align 8
  %26 = load ptr, ptr %11, align 8
  %27 = call noundef i32 @_ZN7JNIEnv_8ThrowNewEP7_jclassPKc(ptr noundef nonnull align 8 dereferenceable(8) %25, ptr noundef %26, ptr noundef @.str.22)
  br label %32

28:                                               ; preds = %3
  %29 = landingpad { ptr, i32 }
          cleanup
  %30 = extractvalue { ptr, i32 } %29, 0
  store ptr %30, ptr %9, align 8
  %31 = extractvalue { ptr, i32 } %29, 1
  store i32 %31, ptr %10, align 4
  call void @_ZdlPvm(ptr noundef %12, i64 noundef 64) #6
  br label %42

32:                                               ; preds = %24, %18
  %33 = load ptr, ptr %8, align 8
  %34 = icmp eq ptr %33, null
  br i1 %34, label %36, label %35

35:                                               ; preds = %32
  call void @_ZN11DwarfParserD2Ev(ptr noundef nonnull align 8 dereferenceable(61) %33) #7
  call void @_ZdlPvm(ptr noundef %33, i64 noundef 64) #6
  br label %36

36:                                               ; preds = %35, %32
  store i64 0, ptr %4, align 8
  br label %40

37:                                               ; preds = %15
  %38 = load ptr, ptr %8, align 8
  %39 = ptrtoint ptr %38 to i64
  store i64 %39, ptr %4, align 8
  br label %40

40:                                               ; preds = %37, %36
  %41 = load i64, ptr %4, align 8
  ret i64 %41

42:                                               ; preds = %28
  %43 = load ptr, ptr %9, align 8
  %44 = load i32, ptr %10, align 4
  %45 = insertvalue { ptr, i32 } poison, ptr %43, 0
  %46 = insertvalue { ptr, i32 } %45, i32 %44, 1
  resume { ptr, i32 } %46
}