; Function Attrs: mustprogress uwtable
define noundef i64 @Java_sun_jvm_hotspot_debugger_linux_amd64_DwarfParser_createDwarfContext(ptr noundef %0, ptr nocapture noundef readnone %1, i64 noundef %2) local_unnamed_addr #0 personality ptr @__gxx_personality_v0 {
  %4 = tail call noalias noundef nonnull dereferenceable(64) ptr @_Znwm(i64 noundef 64) #6
  %5 = inttoptr i64 %2 to ptr
  store ptr %5, ptr %4, align 8
  %6 = getelementptr inbounds i8, ptr %4, i64 8
  store ptr null, ptr %6, align 8
  %7 = getelementptr inbounds i8, ptr %4, i64 16
  store i8 0, ptr %7, align 8
  %8 = getelementptr inbounds i8, ptr %4, i64 20
  store <4 x i32> <i32 7, i32 16, i32 0, i32 0>, ptr %8, align 4
  %9 = getelementptr inbounds i8, ptr %4, i64 40
  tail call void @llvm.memset.p0.i64(ptr noundef nonnull align 8 dereferenceable(21) %9, i8 0, i64 21, i1 false)
  %10 = getelementptr inbounds i8, ptr %5, i64 4400
  %11 = load ptr, ptr %10, align 8
  %.not8 = icmp eq ptr %11, null
  br i1 %.not8, label %12, label %27

12:                                               ; preds = %3
  %13 = load ptr, ptr %0, align 8
  %14 = getelementptr inbounds i8, ptr %13, i64 48
  %15 = load ptr, ptr %14, align 8
  %16 = tail call noundef ptr %15(ptr noundef nonnull %0, ptr noundef nonnull @.str.21)
  %17 = load ptr, ptr %0, align 8
  %18 = getelementptr inbounds i8, ptr %17, i64 120
  %19 = load ptr, ptr %18, align 8
  %20 = tail call noundef ptr %19(ptr noundef nonnull %0)
  %.not = icmp eq ptr %20, null
  br i1 %.not, label %21, label %26

21:                                               ; preds = %12
  %22 = load ptr, ptr %0, align 8
  %23 = getelementptr inbounds i8, ptr %22, i64 112
  %24 = load ptr, ptr %23, align 8
  %25 = tail call noundef i32 %24(ptr noundef nonnull %0, ptr noundef %16, ptr noundef nonnull @.str.22)
  br label %26

26:                                               ; preds = %12, %21
  tail call void @_ZdlPvm(ptr noundef nonnull %4, i64 noundef 64) #7
  br label %29

27:                                               ; preds = %3
  %28 = ptrtoint ptr %4 to i64
  br label %29

29:                                               ; preds = %27, %26
  %.0 = phi i64 [ %28, %27 ], [ 0, %26 ]
  ret i64 %.0
}